BL51 BANKED LINKER/LOCATER V6.22                                                        06/07/2017  11:25:54  PAGE 1


BL51 BANKED LINKER/LOCATER V6.22, INVOKED BY:
C:\KEIL_V5\C51\BIN\BL51.EXE .\Objects\STARTUP.obj, .\Objects\intr.obj, .\Objects\key.obj, .\Objects\main.obj, .\Objects\
>> motor.obj TO .\Objects\stepping motor for test PRINT (.\Listings\stepping motor for test.m51) RAMSIZE (256)


MEMORY MODEL: SMALL


INPUT MODULES INCLUDED:
  .\Objects\STARTUP.obj (?C_STARTUP)
  .\Objects\intr.obj (INTR)
  .\Objects\key.obj (KEY)
  .\Objects\main.obj (MAIN)
  .\Objects\motor.obj (MOTOR)
  C:\KEIL_V5\C51\LIB\C51S.LIB (?C_INIT)
  C:\KEIL_V5\C51\LIB\C51S.LIB (?C?LMUL)
  C:\KEIL_V5\C51\LIB\C51S.LIB (?C?SLDIV)
  C:\KEIL_V5\C51\LIB\C51S.LIB (?C?SLCMP)
  C:\KEIL_V5\C51\LIB\C51S.LIB (?C?ULDIV)


LINK MAP OF MODULE:  .\Objects\stepping motor for test (?C_STARTUP)


            TYPE    BASE      LENGTH    RELOCATION   SEGMENT NAME
            -----------------------------------------------------

            * * * * * * *   D A T A   M E M O R Y   * * * * * * *
            REG     0000H     0008H     ABSOLUTE     "REG BANK 0"
            DATA    0008H     000CH     UNIT         _DATA_GROUP_
            DATA    0014H     0005H     UNIT         ?DT?MOTOR
            DATA    0019H     0001H     UNIT         ?DT?INTR
                    001AH     0006H                  *** GAP ***
            BIT     0020H.0   0000H.4   UNIT         ?BI?MOTOR
            BIT     0020H.4   0000H.2   UNIT         ?BI?KEY
            BIT     0020H.6   0000H.1   UNIT         ?BI?INTR
                    0020H.7   0000H.1                *** GAP ***
            DATA    0021H     0033H     UNIT         ?DT?KEY
            IDATA   0054H     0001H     UNIT         ?STACK

            * * * * * * *   C O D E   M E M O R Y   * * * * * * *
            CODE    0000H     0003H     ABSOLUTE     
                    0003H     0008H                  *** GAP ***
            CODE    000BH     0003H     ABSOLUTE     
                    000EH     07F2H                  *** GAP ***
            CODE    0800H     0133H     UNIT         ?C?LIB_CODE
            CODE    0933H     00D3H     UNIT         ?PR?KEYSCAN?KEY
            CODE    0A06H     00C1H     UNIT         ?PR?TURNMOTOR?MOTOR
            CODE    0AC7H     008CH     UNIT         ?C_C51STARTUP
            CODE    0B53H     0080H     UNIT         ?PR?_KEYACTION?KEY
            CODE    0BD3H     0073H     UNIT         ?PR?KEYDRIVER?KEY
            CODE    0C46H     006BH     UNIT         ?PR?_STARTMOTORANG?MOTOR
            CODE    0CB1H     005DH     UNIT         ?PR?INTERRUPTTIMER0?INTR
            CODE    0D0EH     005AH     UNIT         ?C_INITSEG
            CODE    0D68H     0044H     UNIT         ?C?LDIV
            CODE    0DACH     0039H     UNIT         ?PR?_STARTMOTORSTEPFWD?MOTOR
            CODE    0DE5H     0036H     UNIT         ?PR?_STARTMOTORSTEPREV?MOTOR
            CODE    0E1BH     0012H     UNIT         ?PR?INTR_INIT?INTR
BL51 BANKED LINKER/LOCATER V6.22                                                      06/07/2017  11:25:54  PAGE 2


            CODE    0E2DH     0010H     UNIT         ?CO?KEY
            CODE    0E3DH     0010H     UNIT         ?CO?MOTOR
            CODE    0E4DH     000EH     UNIT         ?PR?STOPMOTOR?MOTOR
            CODE    0E5BH     0008H     UNIT         ?PR?MAIN?MAIN



OVERLAY MAP OF MODULE:   .\Objects\stepping motor for test (?C_STARTUP)


SEGMENT                                DATA_GROUP 
  +--> CALLED SEGMENT                START    LENGTH
----------------------------------------------------
?C_C51STARTUP                        -----    -----
  +--> ?PR?MAIN?MAIN
  +--> ?C_INITSEG

?PR?MAIN?MAIN                        -----    -----
  +--> ?PR?INTR_INIT?INTR
  +--> ?PR?KEYDRIVER?KEY

?PR?KEYDRIVER?KEY                    0008H    0002H
  +--> ?CO?KEY
  +--> ?PR?_KEYACTION?KEY

?PR?_KEYACTION?KEY                   000AH    0001H
  +--> ?PR?_STARTMOTORANG?MOTOR
  +--> ?PR?_STARTMOTORSTEPFWD?MOTOR
  +--> ?PR?_STARTMOTORSTEPREV?MOTOR
  +--> ?PR?STOPMOTOR?MOTOR

?PR?_STARTMOTORANG?MOTOR             000FH    0004H

?PR?_STARTMOTORSTEPFWD?MOTOR         000BH    0004H
  +--> ?PR?_STARTMOTORANG?MOTOR

?PR?_STARTMOTORSTEPREV?MOTOR         000BH    0004H
  +--> ?PR?_STARTMOTORANG?MOTOR

*** NEW ROOT ***************************************************

?PR?INTERRUPTTIMER0?INTR             -----    -----
  +--> ?PR?KEYSCAN?KEY
  +--> ?PR?TURNMOTOR?MOTOR

?PR?TURNMOTOR?MOTOR                  0013H    0001H
  +--> ?CO?MOTOR



SYMBOL TABLE OF MODULE:  .\Objects\stepping motor for test (?C_STARTUP)

  VALUE           TYPE          NAME
  ----------------------------------

  -------         MODULE        ?C_STARTUP
  C:0AC7H         SEGMENT       ?C_C51STARTUP
BL51 BANKED LINKER/LOCATER V6.22                                                      06/07/2017  11:25:54  PAGE 3


  I:0054H         SEGMENT       ?STACK
  C:0000H         PUBLIC        ?C_STARTUP
  D:00E0H         SYMBOL        ACC
  D:00F0H         SYMBOL        B
  D:0083H         SYMBOL        DPH
  D:0082H         SYMBOL        DPL
  N:0000H         SYMBOL        IBPSTACK
  N:0100H         SYMBOL        IBPSTACKTOP
  N:0080H         SYMBOL        IDATALEN
  C:0ACAH         SYMBOL        IDATALOOP
  N:0000H         SYMBOL        PBPSTACK
  N:0100H         SYMBOL        PBPSTACKTOP
  N:0000H         SYMBOL        PDATALEN
  N:0000H         SYMBOL        PDATASTART
  N:0000H         SYMBOL        PPAGE
  N:0000H         SYMBOL        PPAGEENABLE
  D:00A0H         SYMBOL        PPAGE_SFR
  D:0081H         SYMBOL        SP
  C:0AC7H         SYMBOL        STARTUP1
  N:0000H         SYMBOL        XBPSTACK
  N:0000H         SYMBOL        XBPSTACKTOP
  N:0000H         SYMBOL        XDATALEN
  N:0000H         SYMBOL        XDATASTART
  C:0000H         LINE#         126
  C:0AC7H         LINE#         133
  C:0AC9H         LINE#         134
  C:0ACAH         LINE#         135
  C:0ACBH         LINE#         136
  C:0ACDH         LINE#         185
  C:0AD0H         LINE#         196
  -------         ENDMOD        ?C_STARTUP

  -------         MODULE        INTR
  C:0000H         SYMBOL        _ICE_DUMMY_
  D:0090H         PUBLIC        P1
  D:00A0H         PUBLIC        P2
  D:00B0H         PUBLIC        P3
  B:00A8H.7       PUBLIC        EA
  C:0CB1H         PUBLIC        InterruptTimer0
  D:00A8H         PUBLIC        IE
  D:00B8H         PUBLIC        IP
  D:0098H         PUBLIC        SCON
  D:0089H         PUBLIC        TMOD
  D:0088H         PUBLIC        TCON
  B:00A8H.1       PUBLIC        ET0
  D:008CH         PUBLIC        TH0
  D:008AH         PUBLIC        TL0
  C:0E1BH         PUBLIC        intr_init
  B:0088H.4       PUBLIC        TR0
  D:00C8H         PUBLIC        T2CON
  D:0019H         SYMBOL        TM0Cnt
  D:00D0H         PUBLIC        PSW
  -------         PROC          INTR_INIT
  C:0E1BH         LINE#         15
  C:0E1BH         LINE#         16
  C:0E1BH         LINE#         17
  C:0E1DH         LINE#         18
BL51 BANKED LINKER/LOCATER V6.22                                                      06/07/2017  11:25:54  PAGE 4


  C:0E20H         LINE#         19
  C:0E23H         LINE#         20
  C:0E26H         LINE#         21
  C:0E28H         LINE#         22
  C:0E2AH         LINE#         23
  C:0E2CH         LINE#         24
  -------         ENDPROC       INTR_INIT
  -------         PROC          INTERRUPTTIMER0
  -------         DO            
  B:0020H.6       SYMBOL        div
  -------         ENDDO         
  C:0CB1H         LINE#         26
  C:0CCEH         LINE#         30
  C:0CD0H         LINE#         32
  C:0CD3H         LINE#         33
  C:0CD6H         LINE#         34
  C:0CD9H         LINE#         42
  C:0CDFH         LINE#         43
  C:0CE1H         LINE#         45
  C:0CE4H         LINE#         56
  C:0CE4H         LINE#         57
  C:0CE4H         LINE#         58
  C:0CE6H         LINE#         60
  C:0CEDH         LINE#         61
  C:0CF0H         LINE#         62
  C:0CF3H         LINE#         63
  C:0CF3H         LINE#         64
  C:0CF3H         LINE#         66
  -------         ENDPROC       INTERRUPTTIMER0
  -------         ENDMOD        INTR

  -------         MODULE        KEY
  C:0000H         SYMBOL        _ICE_DUMMY_
  D:0090H         PUBLIC        P1
  D:00A0H         PUBLIC        P2
  B:0020H.4       PUBLIC        Flag_StallFwd
  D:00B0H         PUBLIC        P3
  C:0B53H         PUBLIC        _KeyAction
  D:00A8H         PUBLIC        IE
  B:0020H.5       PUBLIC        Flag_StallRev
  D:0042H         SYMBOL        keyCntFwd
  D:00B8H         PUBLIC        IP
  C:0BD3H         PUBLIC        KeyDriver
  D:0043H         SYMBOL        keyCntRev
  C:0933H         PUBLIC        KeyScan
  D:0098H         PUBLIC        SCON
  D:0088H         PUBLIC        TCON
  C:0E2DH         PUBLIC        KeyCodeMap
  D:0044H         PUBLIC        KeySta
  B:00A0H.3       PUBLIC        KEY_OUT_1
  B:00A0H.2       PUBLIC        KEY_OUT_2
  B:00A0H.1       PUBLIC        KEY_OUT_3
  B:00A0H.0       PUBLIC        KEY_OUT_4
  D:00C8H         PUBLIC        T2CON
  B:00A0H.4       PUBLIC        KEY_IN_1
  B:00A0H.5       PUBLIC        KEY_IN_2
  B:00A0H.6       PUBLIC        KEY_IN_3
BL51 BANKED LINKER/LOCATER V6.22                                                      06/07/2017  11:25:54  PAGE 5


  B:00A0H.7       PUBLIC        KEY_IN_4
  D:00D0H         PUBLIC        PSW
  -------         PROC          _KEYACTION
  D:000AH         SYMBOL        keycode
  C:0B53H         LINE#         37
  C:0B55H         LINE#         38
  C:0B55H         LINE#         39
  C:0B63H         LINE#         41
  C:0B68H         LINE#         42
  C:0B6AH         LINE#         43
  C:0B72H         LINE#         44
  C:0B79H         LINE#         45
  C:0B7BH         LINE#         46
  C:0B86H         LINE#         47
  C:0B8BH         LINE#         48
  C:0B8DH         LINE#         49
  C:0B8FH         LINE#         50
  C:0B96H         LINE#         51
  C:0B99H         LINE#         52
  C:0B9BH         LINE#         53
  C:0B9DH         LINE#         54
  C:0B9DH         LINE#         55
  C:0BA8H         LINE#         56
  C:0BADH         LINE#         57
  C:0BAFH         LINE#         58
  C:0BB1H         LINE#         59
  C:0BB8H         LINE#         60
  C:0BBBH         LINE#         61
  C:0BBDH         LINE#         62
  C:0BBFH         LINE#         63
  C:0BBFH         LINE#         64
  C:0BCAH         LINE#         65
  C:0BCFH         LINE#         66
  C:0BD2H         LINE#         67
  C:0BD2H         LINE#         68
  -------         ENDPROC       _KEYACTION
  -------         PROC          KEYDRIVER
  -------         DO            
  D:0008H         SYMBOL        i
  D:0009H         SYMBOL        j
  D:0021H         SYMBOL        backup
  -------         ENDDO         
  C:0BD3H         LINE#         71
  C:0BD3H         LINE#         72
  C:0BD3H         LINE#         82
  C:0BD6H         LINE#         83
  C:0BD9H         LINE#         84
  C:0BF6H         LINE#         85
  C:0BF9H         LINE#         86
  C:0C19H         LINE#         87
  C:0C19H         LINE#         88
  C:0C33H         LINE#         89
  C:0C33H         LINE#         90
  C:0C3CH         LINE#         91
  C:0C45H         LINE#         92
  -------         ENDPROC       KEYDRIVER
  -------         PROC          KEYSCAN
BL51 BANKED LINKER/LOCATER V6.22                                                      06/07/2017  11:25:54  PAGE 6


  -------         DO            
  D:0007H         SYMBOL        i
  D:0031H         SYMBOL        keyout
  D:0032H         SYMBOL        keybuf
  -------         ENDDO         
  C:0933H         LINE#         95
  C:0933H         LINE#         96
  C:0933H         LINE#         109
  C:0951H         LINE#         110
  C:096FH         LINE#         111
  C:098DH         LINE#         112
  C:09ABH         LINE#         114
  C:09ADH         LINE#         115
  C:09BDH         LINE#         116
  C:09C9H         LINE#         117
  C:09CEH         LINE#         118
  C:09DAH         LINE#         119
  C:09DAH         LINE#         120
  C:09DEH         LINE#         122
  C:09E0H         LINE#         123
  C:09E3H         LINE#         124
  C:09F2H         LINE#         125
  C:09F2H         LINE#         126
  C:09F4H         LINE#         127
  C:09F6H         LINE#         128
  C:09F7H         LINE#         129
  C:09F7H         LINE#         130
  C:09F9H         LINE#         131
  C:09FBH         LINE#         132
  C:09FCH         LINE#         133
  C:09FCH         LINE#         134
  C:09FEH         LINE#         135
  C:0A00H         LINE#         136
  C:0A01H         LINE#         137
  C:0A01H         LINE#         138
  C:0A03H         LINE#         139
  C:0A05H         LINE#         140
  C:0A05H         LINE#         141
  C:0A05H         LINE#         142
  C:0A05H         LINE#         143
  C:0A05H         LINE#         144
  -------         ENDPROC       KEYSCAN
  -------         ENDMOD        KEY

  -------         MODULE        MAIN
  C:0000H         SYMBOL        _ICE_DUMMY_
  D:0090H         PUBLIC        P1
  D:00A0H         PUBLIC        P2
  D:00B0H         PUBLIC        P3
  D:00A8H         PUBLIC        IE
  D:00B8H         PUBLIC        IP
  C:0E5BH         PUBLIC        main
  D:0098H         PUBLIC        SCON
  D:0088H         PUBLIC        TCON
  D:00C8H         PUBLIC        T2CON
  D:00D0H         PUBLIC        PSW
  -------         PROC          MAIN
BL51 BANKED LINKER/LOCATER V6.22                                                      06/07/2017  11:25:54  PAGE 7


  C:0E5BH         LINE#         15
  C:0E5BH         LINE#         16
  C:0E5BH         LINE#         17
  C:0E5EH         LINE#         19
  C:0E5EH         LINE#         20
  C:0E61H         LINE#         21
  -------         ENDPROC       MAIN
  -------         ENDMOD        MAIN

  -------         MODULE        MOTOR
  C:0000H         SYMBOL        _ICE_DUMMY_
  D:0090H         PUBLIC        P1
  D:00B0H         PUBLIC        P3
  B:00A8H.7       PUBLIC        EA
  B:0020H.0       PUBLIC        Flag_StepCntFwdNoLimit
  D:00A8H         PUBLIC        IE
  D:0015H         PUBLIC        beats
  B:0020H.1       PUBLIC        Flag_StepCntRevNoLimit
  D:00B8H         PUBLIC        IP
  D:0098H         PUBLIC        SCON
  D:0088H         PUBLIC        TCON
  C:0E4DH         PUBLIC        StopMotor
  C:0C46H         PUBLIC        _StartMotorAng
  C:0A06H         PUBLIC        TurnMotor
  B:0020H.2       PUBLIC        Flag_StepCntFwd
  B:0020H.3       PUBLIC        Flag_StepCntRev
  D:00C8H         PUBLIC        T2CON
  C:0DACH         PUBLIC        _StartMotorStepFwd
  C:0DE5H         PUBLIC        _StartMotorStepRev
  D:00D0H         PUBLIC        PSW
  C:0E3DH         PUBLIC        BeatCode
  -------         PROC          _STARTMOTORANG
  D:000FH         SYMBOL        angle
  C:0C46H         LINE#         37
  C:0C4EH         LINE#         38
  C:0C4EH         LINE#         39
  C:0C50H         LINE#         52
  C:0C64H         LINE#         53
  C:0C67H         LINE#         54
  C:0C7EH         LINE#         55
  C:0C89H         LINE#         56
  C:0C8BH         LINE#         57
  C:0CAEH         LINE#         58
  C:0CAEH         LINE#         60
  C:0CB0H         LINE#         61
  -------         ENDPROC       _STARTMOTORANG
  -------         PROC          _STARTMOTORSTEPFWD
  D:000BH         SYMBOL        steps
  C:0DACH         LINE#         63
  C:0DB4H         LINE#         64
  C:0DB4H         LINE#         65
  C:0DB7H         LINE#         66
  C:0DB9H         LINE#         67
  C:0DC1H         LINE#         68
  C:0DC3H         LINE#         69
  C:0DC4H         LINE#         70
  C:0DC6H         LINE#         71
BL51 BANKED LINKER/LOCATER V6.22                                                      06/07/2017  11:25:54  PAGE 8


  C:0DCFH         LINE#         72
  C:0DD7H         LINE#         75
  C:0DD9H         LINE#         76
  C:0DE4H         LINE#         77
  C:0DE4H         LINE#         78
  -------         ENDPROC       _STARTMOTORSTEPFWD
  -------         PROC          _STARTMOTORSTEPREV
  D:000BH         SYMBOL        steps
  C:0DE5H         LINE#         80
  C:0DEDH         LINE#         81
  C:0DEDH         LINE#         82
  C:0DF0H         LINE#         83
  C:0DF2H         LINE#         84
  C:0DFAH         LINE#         85
  C:0DFCH         LINE#         86
  C:0DFDH         LINE#         87
  C:0DFFH         LINE#         88
  C:0E08H         LINE#         89
  C:0E10H         LINE#         92
  C:0E12H         LINE#         93
  C:0E1AH         LINE#         94
  C:0E1AH         LINE#         95
  -------         ENDPROC       _STARTMOTORSTEPREV
  -------         PROC          STOPMOTOR
  C:0E4DH         LINE#         98
  C:0E4DH         LINE#         99
  C:0E4DH         LINE#         100
  C:0E4FH         LINE#         101
  C:0E58H         LINE#         102
  C:0E5AH         LINE#         103
  -------         ENDPROC       STOPMOTOR
  -------         PROC          TURNMOTOR
  -------         DO            
  D:0013H         SYMBOL        tmp
  D:0014H         SYMBOL        index
  -------         ENDDO         
  C:0A06H         LINE#         106
  C:0A06H         LINE#         107
  C:0A06H         LINE#         111
  C:0A17H         LINE#         112
  C:0A2AH         LINE#         113
  C:0A2CH         LINE#         115
  C:0A2FH         LINE#         119
  C:0A3FH         LINE#         121
  C:0A3FH         LINE#         122
  C:0A57H         LINE#         123
  C:0A57H         LINE#         124
  C:0A59H         LINE#         125
  C:0A5BH         LINE#         127
  C:0A5EH         LINE#         131
  C:0A76H         LINE#         133
  C:0A76H         LINE#         134
  C:0A8FH         LINE#         135
  C:0A8FH         LINE#         136
  C:0A8FH         LINE#         137
  C:0A92H         LINE#         138
  C:0A95H         LINE#         139
BL51 BANKED LINKER/LOCATER V6.22                                                      06/07/2017  11:25:54  PAGE 9


  C:0AAAH         LINE#         140
  C:0AADH         LINE#         141
  C:0AAFH         LINE#         142
  C:0AB5H         LINE#         143
  C:0AB5H         LINE#         144
  C:0AB8H         LINE#         145
  C:0AB9H         LINE#         152
  C:0ABCH         LINE#         154
  C:0ABEH         LINE#         155
  C:0AC0H         LINE#         156
  C:0AC2H         LINE#         157
  C:0AC4H         LINE#         158
  C:0AC6H         LINE#         159
  C:0AC6H         LINE#         160
  -------         ENDPROC       TURNMOTOR
  -------         ENDMOD        MOTOR

  -------         MODULE        ?C?LMUL
  C:0800H         PUBLIC        ?C?LMUL
  -------         ENDMOD        ?C?LMUL

  -------         MODULE        ?C?SLDIV
  C:0D68H         PUBLIC        ?C?SLDIV
  -------         ENDMOD        ?C?SLDIV

  -------         MODULE        ?C?SLCMP
  C:084FH         PUBLIC        ?C?SLCMP
  -------         ENDMOD        ?C?SLCMP

  -------         MODULE        ?C?ULDIV
  C:08A1H         PUBLIC        ?C?ULDIV
  -------         ENDMOD        ?C?ULDIV

******************************************************************************
* RESTRICTED VERSION WITH 0800H BYTE CODE SIZE LIMIT; USED: 0471H BYTE (55%) *
******************************************************************************

Program Size: data=78.7 xdata=0 code=1641
LINK/LOCATE RUN COMPLETE.  0 WARNING(S),  0 ERROR(S)
